target datalayout = "e-m:e-p270:32:32-p271:32:32-p272:64:64-i64:64-i128:128-f80:128-n8:16:32:64-S128"
target triple = "x86_64-pc-linux-gnu"

%"struct.Luau::CodeGen::X64::RegisterX64" = type { i8 }
%"struct.Luau::CodeGen::X64::OperandX64" = type { i8, %"struct.Luau::CodeGen::X64::RegisterX64", %"struct.Luau::CodeGen::X64::RegisterX64", i8, i32 }
%"class.Luau::CodeGen::X64::IrCallWrapperX64" = type { ptr, ptr, i32, %"struct.std::array", i32, i32, i32, %"struct.Luau::CodeGen::X64::OperandX64", %"struct.std::array.0", %"struct.std::array.0" }
%"struct.std::array" = type { [6 x %"struct.Luau::CodeGen::X64::CallArgument"] }
%"struct.Luau::CodeGen::X64::CallArgument" = type <{ i8, [3 x i8], %"struct.Luau::CodeGen::X64::OperandX64", %"struct.Luau::CodeGen::IrOp", %"struct.Luau::CodeGen::X64::OperandX64", i8, [3 x i8] }>
%"struct.Luau::CodeGen::IrOp" = type { i32 }
%"struct.std::array.0" = type { [16 x i8] }

@_ZN4Luau7CodeGen3X64L5noregE = internal constant %"struct.Luau::CodeGen::X64::RegisterX64" { i8 -128 }, align 1

; Function Attrs: mustprogress nounwind uwtable
define internal noundef zeroext i1 @_ZN4Luau7CodeGen3X64L22sameUnderlyingRegisterENS1_11RegisterX64ES2_(i8 %0, i8 %1) #3 {
  %3 = alloca %"struct.Luau::CodeGen::X64::RegisterX64", align 1
  %4 = alloca %"struct.Luau::CodeGen::X64::RegisterX64", align 1
  %5 = alloca i8, align 1
  %6 = alloca i8, align 1
  %7 = getelementptr inbounds nuw %"struct.Luau::CodeGen::X64::RegisterX64", ptr %3, i32 0, i32 0
  store i8 %0, ptr %7, align 1
  %8 = getelementptr inbounds nuw %"struct.Luau::CodeGen::X64::RegisterX64", ptr %4, i32 0, i32 0
  store i8 %1, ptr %8, align 1
  call void @llvm.lifetime.start.p0(i64 1, ptr %5) #10
  %9 = load i8, ptr %3, align 1
  %10 = and i8 %9, 7
  %11 = icmp eq i8 %10, 5
  %12 = select i1 %11, i8 5, i8 4
  store i8 %12, ptr %5, align 1, !tbaa !38
  call void @llvm.lifetime.start.p0(i64 1, ptr %6) #10
  %13 = load i8, ptr %4, align 1
  %14 = and i8 %13, 7
  %15 = icmp eq i8 %14, 5
  %16 = select i1 %15, i8 5, i8 4
  store i8 %16, ptr %6, align 1, !tbaa !38
  %17 = load i8, ptr %5, align 1, !tbaa !38
  %18 = load i8, ptr %6, align 1, !tbaa !38
  %19 = icmp eq i8 %17, %18
  br i1 %19, label %20, label %28

20:                                               ; preds = %2
  %21 = load i8, ptr %3, align 1
  %22 = lshr i8 %21, 3
  %23 = zext i8 %22 to i32
  %24 = load i8, ptr %4, align 1
  %25 = lshr i8 %24, 3
  %26 = zext i8 %25 to i32
  %27 = icmp eq i32 %23, %26
  br label %28

28:                                               ; preds = %20, %2
  %29 = phi i1 [ false, %2 ], [ %27, %20 ]
  call void @llvm.lifetime.end.p0(i64 1, ptr %6) #10
  call void @llvm.lifetime.end.p0(i64 1, ptr %5) #10
  ret i1 %29
}

; Function Attrs: mustprogress nounwind uwtable
define linkonce_odr dso_local noundef nonnull align 4 dereferenceable(25) ptr @_ZNSt14__array_traitsIN4Luau7CodeGen3X6412CallArgumentELm6EE6_S_refERA6_KS3_m(ptr noundef nonnull align 4 dereferenceable(168) %0, i64 noundef %1) #3 comdat align 2 {
  %3 = alloca ptr, align 8
  %4 = alloca i64, align 8
  store ptr %0, ptr %3, align 8, !tbaa !39
  store i64 %1, ptr %4, align 8, !tbaa !83
  %5 = load ptr, ptr %3, align 8, !tbaa !39
  %6 = load i64, ptr %4, align 8, !tbaa !83
  %7 = getelementptr inbounds nuw [6 x %"struct.Luau::CodeGen::X64::CallArgument"], ptr %5, i64 0, i64 %6
  ret ptr %7
}

; Function Attrs: mustprogress uwtable
define dso_local noundef zeroext i1 @_ZNK4Luau7CodeGen3X6416IrCallWrapperX6426interferesWithActiveTargetENS1_11RegisterX64E(ptr noundef nonnull align 8 dereferenceable(240) %0, i8 %1) #0 align 2 {
  %3 = alloca i1, align 1
  %4 = alloca %"struct.Luau::CodeGen::X64::RegisterX64", align 1
  %5 = alloca ptr, align 8
  %6 = alloca i32, align 4
  %7 = alloca i32, align 4
  %8 = alloca ptr, align 8
  %9 = alloca %"struct.Luau::CodeGen::X64::RegisterX64", align 1
  %10 = alloca %"struct.Luau::CodeGen::X64::RegisterX64", align 1
  %11 = getelementptr inbounds nuw %"struct.Luau::CodeGen::X64::RegisterX64", ptr %4, i32 0, i32 0
  store i8 %1, ptr %11, align 1
  store ptr %0, ptr %5, align 8, !tbaa !4
  %12 = load ptr, ptr %5, align 8
  call void @llvm.lifetime.start.p0(i64 4, ptr %6) #10
  store i32 0, ptr %6, align 4, !tbaa !13
  br label %13

13:                                               ; preds = %42, %2
  %14 = load i32, ptr %6, align 4, !tbaa !13
  %15 = getelementptr inbounds nuw %"class.Luau::CodeGen::X64::IrCallWrapperX64", ptr %12, i32 0, i32 4
  %16 = load i32, ptr %15, align 4, !tbaa !23
  %17 = icmp slt i32 %14, %16
  br i1 %17, label %19, label %18

18:                                               ; preds = %13
  store i32 2, ptr %7, align 4
  br label %45

19:                                               ; preds = %13
  call void @llvm.lifetime.start.p0(i64 8, ptr %8) #10
  %20 = getelementptr inbounds nuw %"class.Luau::CodeGen::X64::IrCallWrapperX64", ptr %12, i32 0, i32 3
  %21 = load i32, ptr %6, align 4, !tbaa !13
  %22 = sext i32 %21 to i64
  %23 = call noundef nonnull align 4 dereferenceable(25) ptr @_ZNKSt5arrayIN4Luau7CodeGen3X6412CallArgumentELm6EEixEm(ptr noundef nonnull align 4 dereferenceable(168) %20, i64 noundef %22) #10
  store ptr %23, ptr %8, align 8, !tbaa !39
  %24 = load ptr, ptr %8, align 8, !tbaa !39
  %25 = getelementptr inbounds nuw %"struct.Luau::CodeGen::X64::CallArgument", ptr %24, i32 0, i32 5
  %26 = load i8, ptr %25, align 4, !tbaa !49, !range !116, !noundef !117
  %27 = trunc i8 %26 to i1
  br i1 %27, label %28, label %38

28:                                               ; preds = %19
  %29 = load ptr, ptr %8, align 8, !tbaa !39
  %30 = getelementptr inbounds nuw %"struct.Luau::CodeGen::X64::CallArgument", ptr %29, i32 0, i32 4
  %31 = getelementptr inbounds nuw %"struct.Luau::CodeGen::X64::OperandX64", ptr %30, i32 0, i32 2
  call void @llvm.memcpy.p0.p0.i64(ptr align 1 %9, ptr align 2 %31, i64 1, i1 false), !tbaa.struct !26
  call void @llvm.memcpy.p0.p0.i64(ptr align 1 %10, ptr align 1 %4, i64 1, i1 false), !tbaa.struct !26
  %32 = getelementptr inbounds nuw %"struct.Luau::CodeGen::X64::RegisterX64", ptr %9, i32 0, i32 0
  %33 = load i8, ptr %32, align 1
  %34 = getelementptr inbounds nuw %"struct.Luau::CodeGen::X64::RegisterX64", ptr %10, i32 0, i32 0
  %35 = load i8, ptr %34, align 1
  %36 = call noundef zeroext i1 @_ZN4Luau7CodeGen3X64L22sameUnderlyingRegisterENS1_11RegisterX64ES2_(i8 %33, i8 %35)
  br i1 %36, label %37, label %38

37:                                               ; preds = %28
  store i1 true, ptr %3, align 1
  store i32 1, ptr %7, align 4
  br label %39

38:                                               ; preds = %28, %19
  store i32 0, ptr %7, align 4
  br label %39

39:                                               ; preds = %38, %37
  call void @llvm.lifetime.end.p0(i64 8, ptr %8) #10
  %40 = load i32, ptr %7, align 4
  switch i32 %40, label %45 [
    i32 0, label %41
  ]

41:                                               ; preds = %39
  br label %42

42:                                               ; preds = %41
  %43 = load i32, ptr %6, align 4, !tbaa !13
  %44 = add nsw i32 %43, 1
  store i32 %44, ptr %6, align 4, !tbaa !13
  br label %13, !llvm.loop !125

45:                                               ; preds = %39, %18
  call void @llvm.lifetime.end.p0(i64 4, ptr %6) #10
  %46 = load i32, ptr %7, align 4
  switch i32 %46, label %50 [
    i32 2, label %47
    i32 1, label %48
  ]

47:                                               ; preds = %45
  store i1 false, ptr %3, align 1
  br label %48

48:                                               ; preds = %47, %45
  %49 = load i1, ptr %3, align 1
  ret i1 %49

50:                                               ; preds = %45
  unreachable
}

; Function Attrs: mustprogress nounwind uwtable
define linkonce_odr dso_local noundef nonnull align 4 dereferenceable(25) ptr @_ZNKSt5arrayIN4Luau7CodeGen3X6412CallArgumentELm6EEixEm(ptr noundef nonnull align 4 dereferenceable(168) %0, i64 noundef %1) #3 comdat align 2 {
  %3 = alloca ptr, align 8
  %4 = alloca i64, align 8
  store ptr %0, ptr %3, align 8, !tbaa !28
  store i64 %1, ptr %4, align 8, !tbaa !83
  %5 = load ptr, ptr %3, align 8
  %6 = getelementptr inbounds nuw %"struct.std::array", ptr %5, i32 0, i32 0
  %7 = load i64, ptr %4, align 8, !tbaa !83
  %8 = call noundef nonnull align 4 dereferenceable(25) ptr @_ZNSt14__array_traitsIN4Luau7CodeGen3X6412CallArgumentELm6EE6_S_refERA6_KS3_m(ptr noundef nonnull align 4 dereferenceable(168) %6, i64 noundef %7) #10
  ret ptr %8
}

; Function Attrs: mustprogress uwtable
define dso_local i8 @_ZNK4Luau7CodeGen3X6416IrCallWrapperX6421findConflictingTargetEv(ptr noundef nonnull align 8 dereferenceable(240) %0) #0 align 2 {
  %2 = alloca %"struct.Luau::CodeGen::X64::RegisterX64", align 1
  %3 = alloca ptr, align 8
  %4 = alloca i32, align 4
  %5 = alloca i32, align 4
  %6 = alloca ptr, align 8
  %7 = alloca %"struct.Luau::CodeGen::X64::RegisterX64", align 1
  %8 = alloca %"struct.Luau::CodeGen::X64::RegisterX64", align 1
  %9 = alloca %"struct.Luau::CodeGen::X64::RegisterX64", align 1
  %10 = alloca %"struct.Luau::CodeGen::X64::RegisterX64", align 1
  store ptr %0, ptr %3, align 8, !tbaa !4
  %11 = load ptr, ptr %3, align 8
  call void @llvm.lifetime.start.p0(i64 4, ptr %4) #10
  store i32 0, ptr %4, align 4, !tbaa !13
  br label %12

12:                                               ; preds = %54, %1
  %13 = load i32, ptr %4, align 4, !tbaa !13
  %14 = getelementptr inbounds nuw %"class.Luau::CodeGen::X64::IrCallWrapperX64", ptr %11, i32 0, i32 4
  %15 = load i32, ptr %14, align 4, !tbaa !23
  %16 = icmp slt i32 %13, %15
  br i1 %16, label %18, label %17

17:                                               ; preds = %12
  store i32 2, ptr %5, align 4
  br label %57

18:                                               ; preds = %12
  call void @llvm.lifetime.start.p0(i64 8, ptr %6) #10
  %19 = getelementptr inbounds nuw %"class.Luau::CodeGen::X64::IrCallWrapperX64", ptr %11, i32 0, i32 3
  %20 = load i32, ptr %4, align 4, !tbaa !13
  %21 = sext i32 %20 to i64
  %22 = call noundef nonnull align 4 dereferenceable(25) ptr @_ZNKSt5arrayIN4Luau7CodeGen3X6412CallArgumentELm6EEixEm(ptr noundef nonnull align 4 dereferenceable(168) %19, i64 noundef %21) #10
  store ptr %22, ptr %6, align 8, !tbaa !39
  %23 = load ptr, ptr %6, align 8, !tbaa !39
  %24 = getelementptr inbounds nuw %"struct.Luau::CodeGen::X64::CallArgument", ptr %23, i32 0, i32 5
  %25 = load i8, ptr %24, align 4, !tbaa !49, !range !116, !noundef !117
  %26 = trunc i8 %25 to i1
  br i1 %26, label %27, label %50

27:                                               ; preds = %18
  %28 = load ptr, ptr %6, align 8, !tbaa !39
  %29 = getelementptr inbounds nuw %"struct.Luau::CodeGen::X64::CallArgument", ptr %28, i32 0, i32 2
  %30 = getelementptr inbounds nuw %"struct.Luau::CodeGen::X64::OperandX64", ptr %29, i32 0, i32 2
  call void @llvm.memcpy.p0.p0.i64(ptr align 1 %7, ptr align 2 %30, i64 1, i1 false), !tbaa.struct !26
  %31 = getelementptr inbounds nuw %"struct.Luau::CodeGen::X64::RegisterX64", ptr %7, i32 0, i32 0
  %32 = load i8, ptr %31, align 1
  %33 = call noundef zeroext i1 @_ZNK4Luau7CodeGen3X6416IrCallWrapperX6426interferesWithActiveTargetENS1_11RegisterX64E(ptr noundef nonnull align 8 dereferenceable(240) %11, i8 %32)
  br i1 %33, label %34, label %38

34:                                               ; preds = %27
  %35 = load ptr, ptr %6, align 8, !tbaa !39
  %36 = getelementptr inbounds nuw %"struct.Luau::CodeGen::X64::CallArgument", ptr %35, i32 0, i32 2
  %37 = getelementptr inbounds nuw %"struct.Luau::CodeGen::X64::OperandX64", ptr %36, i32 0, i32 2
  call void @llvm.memcpy.p0.p0.i64(ptr align 1 %2, ptr align 2 %37, i64 1, i1 false), !tbaa.struct !26
  store i32 1, ptr %5, align 4
  br label %51

38:                                               ; preds = %27
  %39 = load ptr, ptr %6, align 8, !tbaa !39
  %40 = getelementptr inbounds nuw %"struct.Luau::CodeGen::X64::CallArgument", ptr %39, i32 0, i32 2
  %41 = getelementptr inbounds nuw %"struct.Luau::CodeGen::X64::OperandX64", ptr %40, i32 0, i32 1
  call void @llvm.memcpy.p0.p0.i64(ptr align 1 %8, ptr align 1 %41, i64 1, i1 false), !tbaa.struct !26
  %42 = getelementptr inbounds nuw %"struct.Luau::CodeGen::X64::RegisterX64", ptr %8, i32 0, i32 0
  %43 = load i8, ptr %42, align 1
  %44 = call noundef zeroext i1 @_ZNK4Luau7CodeGen3X6416IrCallWrapperX6426interferesWithActiveTargetENS1_11RegisterX64E(ptr noundef nonnull align 8 dereferenceable(240) %11, i8 %43)
  br i1 %44, label %45, label %49

45:                                               ; preds = %38
  %46 = load ptr, ptr %6, align 8, !tbaa !39
  %47 = getelementptr inbounds nuw %"struct.Luau::CodeGen::X64::CallArgument", ptr %46, i32 0, i32 2
  %48 = getelementptr inbounds nuw %"struct.Luau::CodeGen::X64::OperandX64", ptr %47, i32 0, i32 1
  call void @llvm.memcpy.p0.p0.i64(ptr align 1 %2, ptr align 1 %48, i64 1, i1 false), !tbaa.struct !26
  store i32 1, ptr %5, align 4
  br label %51

49:                                               ; preds = %38
  br label %50

50:                                               ; preds = %49, %18
  store i32 0, ptr %5, align 4
  br label %51

51:                                               ; preds = %50, %45, %34
  call void @llvm.lifetime.end.p0(i64 8, ptr %6) #10
  %52 = load i32, ptr %5, align 4
  switch i32 %52, label %57 [
    i32 0, label %53
  ]

53:                                               ; preds = %51
  br label %54

54:                                               ; preds = %53
  %55 = load i32, ptr %4, align 4, !tbaa !13
  %56 = add nsw i32 %55, 1
  store i32 %56, ptr %4, align 4, !tbaa !13
  br label %12, !llvm.loop !119

57:                                               ; preds = %51, %17
  call void @llvm.lifetime.end.p0(i64 4, ptr %4) #10
  %58 = load i32, ptr %5, align 4
  switch i32 %58, label %81 [
    i32 2, label %59
    i32 1, label %78
  ]

59:                                               ; preds = %57
  %60 = getelementptr inbounds nuw %"class.Luau::CodeGen::X64::IrCallWrapperX64", ptr %11, i32 0, i32 7
  %61 = getelementptr inbounds nuw %"struct.Luau::CodeGen::X64::OperandX64", ptr %60, i32 0, i32 2
  call void @llvm.memcpy.p0.p0.i64(ptr align 1 %9, ptr align 2 %61, i64 1, i1 false), !tbaa.struct !26
  %62 = getelementptr inbounds nuw %"struct.Luau::CodeGen::X64::RegisterX64", ptr %9, i32 0, i32 0
  %63 = load i8, ptr %62, align 1
  %64 = call noundef zeroext i1 @_ZNK4Luau7CodeGen3X6416IrCallWrapperX6426interferesWithActiveTargetENS1_11RegisterX64E(ptr noundef nonnull align 8 dereferenceable(240) %11, i8 %63)
  br i1 %64, label %65, label %68

65:                                               ; preds = %59
  %66 = getelementptr inbounds nuw %"class.Luau::CodeGen::X64::IrCallWrapperX64", ptr %11, i32 0, i32 7
  %67 = getelementptr inbounds nuw %"struct.Luau::CodeGen::X64::OperandX64", ptr %66, i32 0, i32 2
  call void @llvm.memcpy.p0.p0.i64(ptr align 1 %2, ptr align 2 %67, i64 1, i1 false), !tbaa.struct !26
  br label %78

68:                                               ; preds = %59
  %69 = getelementptr inbounds nuw %"class.Luau::CodeGen::X64::IrCallWrapperX64", ptr %11, i32 0, i32 7
  %70 = getelementptr inbounds nuw %"struct.Luau::CodeGen::X64::OperandX64", ptr %69, i32 0, i32 1
  call void @llvm.memcpy.p0.p0.i64(ptr align 1 %10, ptr align 1 %70, i64 1, i1 false), !tbaa.struct !26
  %71 = getelementptr inbounds nuw %"struct.Luau::CodeGen::X64::RegisterX64", ptr %10, i32 0, i32 0
  %72 = load i8, ptr %71, align 1
  %73 = call noundef zeroext i1 @_ZNK4Luau7CodeGen3X6416IrCallWrapperX6426interferesWithActiveTargetENS1_11RegisterX64E(ptr noundef nonnull align 8 dereferenceable(240) %11, i8 %72)
  br i1 %73, label %74, label %77

74:                                               ; preds = %68
  %75 = getelementptr inbounds nuw %"class.Luau::CodeGen::X64::IrCallWrapperX64", ptr %11, i32 0, i32 7
  %76 = getelementptr inbounds nuw %"struct.Luau::CodeGen::X64::OperandX64", ptr %75, i32 0, i32 1
  call void @llvm.memcpy.p0.p0.i64(ptr align 1 %2, ptr align 1 %76, i64 1, i1 false), !tbaa.struct !26
  br label %78

77:                                               ; preds = %68
  call void @llvm.memcpy.p0.p0.i64(ptr align 1 %2, ptr align 1 @_ZN4Luau7CodeGen3X64L5noregE, i64 1, i1 false), !tbaa.struct !26
  br label %78

78:                                               ; preds = %77, %74, %65, %57
  %79 = getelementptr inbounds nuw %"struct.Luau::CodeGen::X64::RegisterX64", ptr %2, i32 0, i32 0
  %80 = load i8, ptr %79, align 1
  ret i8 %80

81:                                               ; preds = %57
  unreachable
}