; Function Attrs: mustprogress nofree norecurse nosync nounwind willreturn memory(argmem: read) uwtable
define dso_local i8 @_ZNK4Luau7CodeGen3X6416IrCallWrapperX6421findConflictingTargetEv(ptr noundef nonnull readonly align 8 captures(none) dereferenceable(240) %0) local_unnamed_addr #8 align 2 {
  %2 = getelementptr inbounds nuw i8, ptr %0, i64 188
  %3 = load i32, ptr %2, align 4, !tbaa !29
  %4 = icmp sgt i32 %3, 0
  br i1 %4, label %.lr.ph.split.us.preheader, label %_ZNK4Luau7CodeGen3X6416IrCallWrapperX6426interferesWithActiveTargetENS1_11RegisterX64E.exit42

.lr.ph.split.us.preheader:                        ; preds = %1
  %5 = getelementptr inbounds nuw i8, ptr %0, i64 20
  %wide.trip.count.i = zext nneg i32 %3 to i64
  br label %.lr.ph.split.us

.lr.ph.split.us:                                  ; preds = %.lr.ph.split.us.preheader, %_ZNK4Luau7CodeGen3X6416IrCallWrapperX6426interferesWithActiveTargetENS1_11RegisterX64E.exit30.thread.us
  %indvars.iv = phi i64 [ 0, %.lr.ph.split.us.preheader ], [ %indvars.iv.next, %_ZNK4Luau7CodeGen3X6416IrCallWrapperX6426interferesWithActiveTargetENS1_11RegisterX64E.exit30.thread.us ]
  %6 = getelementptr inbounds nuw [6 x %"struct.Luau::CodeGen::X64::CallArgument"], ptr %5, i64 0, i64 %indvars.iv
  %7 = getelementptr inbounds nuw i8, ptr %6, i64 24
  %8 = load i8, ptr %7, align 4, !tbaa !28, !range !87, !noundef !88
  %9 = trunc nuw i8 %8 to i1
  br i1 %9, label %.lr.ph.i.us, label %_ZNK4Luau7CodeGen3X6416IrCallWrapperX6426interferesWithActiveTargetENS1_11RegisterX64E.exit30.thread.us

.lr.ph.i.us:                                      ; preds = %.lr.ph.split.us
  %10 = getelementptr inbounds nuw i8, ptr %6, i64 6
  %.sroa.03.0.copyload.us = load i8, ptr %10, align 2, !tbaa !26
  %11 = and i8 %.sroa.03.0.copyload.us, 7
  %12 = icmp eq i8 %11, 5
  br label %13

13:                                               ; preds = %.critedge.i.us, %.lr.ph.i.us
  %indvars.iv.i.us = phi i64 [ 0, %.lr.ph.i.us ], [ %indvars.iv.next.i.us, %.critedge.i.us ]
  %14 = getelementptr inbounds nuw [6 x %"struct.Luau::CodeGen::X64::CallArgument"], ptr %5, i64 0, i64 %indvars.iv.i.us
  %15 = getelementptr inbounds nuw i8, ptr %14, i64 24
  %16 = load i8, ptr %15, align 4, !tbaa !28, !range !87, !noundef !88
  %17 = trunc nuw i8 %16 to i1
  br i1 %17, label %18, label %.critedge.i.us

18:                                               ; preds = %13
  %19 = getelementptr inbounds nuw i8, ptr %14, i64 18
  %.sroa.01.0.copyload.i.us = load i8, ptr %19, align 2, !tbaa !26
  %20 = and i8 %.sroa.01.0.copyload.i.us, 7
  %21 = icmp ne i8 %20, 5
  %22 = xor i1 %12, %21
  %.unshifted.i.i.us = xor i8 %.sroa.01.0.copyload.i.us, %.sroa.03.0.copyload.us
  %23 = icmp ult i8 %.unshifted.i.i.us, 8
  %or.cond.i.us = select i1 %22, i1 %23, i1 false
  br i1 %or.cond.i.us, label %_ZNK4Luau7CodeGen3X6416IrCallWrapperX6426interferesWithActiveTargetENS1_11RegisterX64E.exit42, label %.critedge.i.us

.critedge.i.us:                                   ; preds = %18, %13
  %indvars.iv.next.i.us = add nuw nsw i64 %indvars.iv.i.us, 1
  %exitcond.not.i.us = icmp eq i64 %indvars.iv.next.i.us, %wide.trip.count.i
  br i1 %exitcond.not.i.us, label %.lr.ph.i21.us, label %13, !llvm.loop !93

.lr.ph.i21.us:                                    ; preds = %.critedge.i.us
  %24 = getelementptr inbounds nuw i8, ptr %6, i64 5
  %.sroa.02.0.copyload.us = load i8, ptr %24, align 1, !tbaa !26
  %25 = and i8 %.sroa.02.0.copyload.us, 7
  %26 = icmp eq i8 %25, 5
  br label %27

27:                                               ; preds = %.critedge.i24.us, %.lr.ph.i21.us
  %indvars.iv.i23.us = phi i64 [ 0, %.lr.ph.i21.us ], [ %indvars.iv.next.i25.us, %.critedge.i24.us ]
  %28 = getelementptr inbounds nuw [6 x %"struct.Luau::CodeGen::X64::CallArgument"], ptr %5, i64 0, i64 %indvars.iv.i23.us
  %29 = getelementptr inbounds nuw i8, ptr %28, i64 24
  %30 = load i8, ptr %29, align 4, !tbaa !28, !range !87, !noundef !88
  %31 = trunc nuw i8 %30 to i1
  br i1 %31, label %32, label %.critedge.i24.us

32:                                               ; preds = %27
  %33 = getelementptr inbounds nuw i8, ptr %28, i64 18
  %.sroa.01.0.copyload.i27.us = load i8, ptr %33, align 2, !tbaa !26
  %34 = and i8 %.sroa.01.0.copyload.i27.us, 7
  %35 = icmp ne i8 %34, 5
  %36 = xor i1 %26, %35
  %.unshifted.i.i28.us = xor i8 %.sroa.01.0.copyload.i27.us, %.sroa.02.0.copyload.us
  %37 = icmp ult i8 %.unshifted.i.i28.us, 8
  %or.cond.i29.us = select i1 %36, i1 %37, i1 false
  br i1 %or.cond.i29.us, label %_ZNK4Luau7CodeGen3X6416IrCallWrapperX6426interferesWithActiveTargetENS1_11RegisterX64E.exit42, label %.critedge.i24.us

.critedge.i24.us:                                 ; preds = %32, %27
  %indvars.iv.next.i25.us = add nuw nsw i64 %indvars.iv.i23.us, 1
  %exitcond.not.i26.us = icmp eq i64 %indvars.iv.next.i25.us, %wide.trip.count.i
  br i1 %exitcond.not.i26.us, label %_ZNK4Luau7CodeGen3X6416IrCallWrapperX6426interferesWithActiveTargetENS1_11RegisterX64E.exit30.thread.us, label %27, !llvm.loop !93

_ZNK4Luau7CodeGen3X6416IrCallWrapperX6426interferesWithActiveTargetENS1_11RegisterX64E.exit30.thread.us: ; preds = %.critedge.i24.us, %.lr.ph.split.us
  %indvars.iv.next = add nuw nsw i64 %indvars.iv, 1
  %exitcond.not = icmp eq i64 %indvars.iv.next, %wide.trip.count.i
  br i1 %exitcond.not, label %._crit_edge, label %.lr.ph.split.us, !llvm.loop !94

._crit_edge:                                      ; preds = %_ZNK4Luau7CodeGen3X6416IrCallWrapperX6426interferesWithActiveTargetENS1_11RegisterX64E.exit30.thread.us
  %38 = getelementptr inbounds nuw i8, ptr %0, i64 202
  %.sroa.01.0.copyload = load i8, ptr %38, align 2, !tbaa !26
  %39 = getelementptr inbounds nuw i8, ptr %0, i64 20
  %40 = and i8 %.sroa.01.0.copyload, 7
  %41 = icmp eq i8 %40, 5
  %wide.trip.count.i34 = zext nneg i32 %3 to i64
  br label %42

42:                                               ; preds = %.critedge.i36, %._crit_edge
  %indvars.iv.i35 = phi i64 [ 0, %._crit_edge ], [ %indvars.iv.next.i37, %.critedge.i36 ]
  %43 = getelementptr inbounds nuw [6 x %"struct.Luau::CodeGen::X64::CallArgument"], ptr %39, i64 0, i64 %indvars.iv.i35
  %44 = getelementptr inbounds nuw i8, ptr %43, i64 24
  %45 = load i8, ptr %44, align 4, !tbaa !28, !range !87, !noundef !88
  %46 = trunc nuw i8 %45 to i1
  br i1 %46, label %47, label %.critedge.i36

47:                                               ; preds = %42
  %48 = getelementptr inbounds nuw i8, ptr %43, i64 18
  %.sroa.01.0.copyload.i39 = load i8, ptr %48, align 2, !tbaa !26
  %49 = and i8 %.sroa.01.0.copyload.i39, 7
  %50 = icmp ne i8 %49, 5
  %51 = xor i1 %41, %50
  %.unshifted.i.i40 = xor i8 %.sroa.01.0.copyload.i39, %.sroa.01.0.copyload
  %52 = icmp ult i8 %.unshifted.i.i40, 8
  %or.cond.i41 = select i1 %51, i1 %52, i1 false
  br i1 %or.cond.i41, label %_ZNK4Luau7CodeGen3X6416IrCallWrapperX6426interferesWithActiveTargetENS1_11RegisterX64E.exit42, label %.critedge.i36

.critedge.i36:                                    ; preds = %47, %42
  %indvars.iv.next.i37 = add nuw nsw i64 %indvars.iv.i35, 1
  %exitcond.not.i38 = icmp eq i64 %indvars.iv.next.i37, %wide.trip.count.i34
  br i1 %exitcond.not.i38, label %.lr.ph.i45, label %42, !llvm.loop !93

.lr.ph.i45:                                       ; preds = %.critedge.i36
  %53 = getelementptr inbounds nuw i8, ptr %0, i64 201
  %.sroa.0.0.copyload = load i8, ptr %53, align 1, !tbaa !26
  %54 = and i8 %.sroa.0.0.copyload, 7
  %55 = icmp eq i8 %54, 5
  br label %56

56:                                               ; preds = %.critedge.i48, %.lr.ph.i45
  %indvars.iv.i47 = phi i64 [ 0, %.lr.ph.i45 ], [ %indvars.iv.next.i49, %.critedge.i48 ]
  %57 = getelementptr inbounds nuw [6 x %"struct.Luau::CodeGen::X64::CallArgument"], ptr %39, i64 0, i64 %indvars.iv.i47
  %58 = getelementptr inbounds nuw i8, ptr %57, i64 24
  %59 = load i8, ptr %58, align 4, !tbaa !28, !range !87, !noundef !88
  %60 = trunc nuw i8 %59 to i1
  br i1 %60, label %61, label %.critedge.i48

61:                                               ; preds = %56
  %62 = getelementptr inbounds nuw i8, ptr %57, i64 18
  %.sroa.01.0.copyload.i51 = load i8, ptr %62, align 2, !tbaa !26
  %63 = and i8 %.sroa.01.0.copyload.i51, 7
  %64 = icmp ne i8 %63, 5
  %65 = xor i1 %55, %64
  %.unshifted.i.i52 = xor i8 %.sroa.01.0.copyload.i51, %.sroa.0.0.copyload
  %66 = icmp ult i8 %.unshifted.i.i52, 8
  %or.cond.i53 = select i1 %65, i1 %66, i1 false
  br i1 %or.cond.i53, label %_ZNK4Luau7CodeGen3X6416IrCallWrapperX6426interferesWithActiveTargetENS1_11RegisterX64E.exit42, label %.critedge.i48

.critedge.i48:                                    ; preds = %61, %56
  %indvars.iv.next.i49 = add nuw nsw i64 %indvars.iv.i47, 1
  %exitcond.not.i50 = icmp eq i64 %indvars.iv.next.i49, %wide.trip.count.i34
  br i1 %exitcond.not.i50, label %_ZNK4Luau7CodeGen3X6416IrCallWrapperX6426interferesWithActiveTargetENS1_11RegisterX64E.exit42, label %56, !llvm.loop !93

_ZNK4Luau7CodeGen3X6416IrCallWrapperX6426interferesWithActiveTargetENS1_11RegisterX64E.exit42: ; preds = %18, %32, %47, %.critedge.i48, %61, %1
  %.sroa.013.3 = phi i8 [ -128, %1 ], [ -128, %.critedge.i48 ], [ %.sroa.0.0.copyload, %61 ], [ %.sroa.01.0.copyload, %47 ], [ %.sroa.02.0.copyload.us, %32 ], [ %.sroa.03.0.copyload.us, %18 ]
  ret i8 %.sroa.013.3
}